target datalayout = "e-m:e-p270:32:32-p271:32:32-p272:64:64-i64:64-i128:128-f80:128-n8:16:32:64-S128"
target triple = "x86_64-pc-linux-gnu"

%struct.strbuf = type { i64, i64, ptr }
%struct.list_objects_filter_options = type { %struct.strbuf, i32, i8, ptr, i64, i64, i32, i64, i64, ptr }

@.str.6 = private unnamed_addr constant [30 x i8] c"list-objects-filter-options.c\00", align 1
@.str.22 = private unnamed_addr constant [33 x i8] c"negative growth in ALLOC_GROW_BY\00", align 1
@.str.29 = private unnamed_addr constant [1 x i8] zeroinitializer, align 1
@git_gettext_enabled = external global i32, align 4
@.str.30 = private unnamed_addr constant [34 x i8] c"expected something after combine:\00", align 1
@RESERVED_NON_WS = internal global ptr @.str.32, align 8
@.str.31 = private unnamed_addr constant [42 x i8] c"must escape char in sub-filter-spec: '%c'\00", align 1
@.str.33 = private unnamed_addr constant [27 x i8] c"size_t overflow: %lu * %lu\00", align 1

; Function Attrs: nounwind uwtable
define internal i32 @has_reserved_character(ptr noundef %0, ptr noundef %1) #0 {
  %3 = alloca i32, align 4
  %4 = alloca ptr, align 8
  %5 = alloca ptr, align 8
  %6 = alloca ptr, align 8
  %7 = alloca i32, align 4
  store ptr %0, ptr %4, align 8, !tbaa !13
  store ptr %1, ptr %5, align 8, !tbaa !13
  call void @llvm.lifetime.start.p0(i64 8, ptr %6) #10
  %8 = load ptr, ptr %4, align 8, !tbaa !13
  %9 = getelementptr inbounds nuw %struct.strbuf, ptr %8, i32 0, i32 2
  %10 = load ptr, ptr %9, align 8, !tbaa !32
  store ptr %10, ptr %6, align 8, !tbaa !11
  br label %11

11:                                               ; preds = %33, %2
  %12 = load ptr, ptr %6, align 8, !tbaa !11
  %13 = load i8, ptr %12, align 1, !tbaa !23
  %14 = icmp ne i8 %13, 0
  br i1 %14, label %15, label %36

15:                                               ; preds = %11
  %16 = load ptr, ptr %6, align 8, !tbaa !11
  %17 = load i8, ptr %16, align 1, !tbaa !23
  %18 = sext i8 %17 to i32
  %19 = icmp sle i32 %18, 32
  br i1 %19, label %27, label %20

20:                                               ; preds = %15
  %21 = load ptr, ptr @RESERVED_NON_WS, align 8, !tbaa !11
  %22 = load ptr, ptr %6, align 8, !tbaa !11
  %23 = load i8, ptr %22, align 1, !tbaa !23
  %24 = sext i8 %23 to i32
  %25 = call ptr @strchr(ptr noundef %21, i32 noundef %24) #11
  %26 = icmp ne ptr %25, null
  br i1 %26, label %27, label %33

27:                                               ; preds = %20, %15
  %28 = load ptr, ptr %5, align 8, !tbaa !13
  %29 = call ptr @_(ptr noundef @.str.31)
  %30 = load ptr, ptr %6, align 8, !tbaa !11
  %31 = load i8, ptr %30, align 1, !tbaa !23
  %32 = sext i8 %31 to i32
  call void (ptr, ptr, ...) @strbuf_addf(ptr noundef %28, ptr noundef %29, i32 noundef %32)
  store i32 1, ptr %3, align 4
  store i32 1, ptr %7, align 4
  br label %37

33:                                               ; preds = %20
  %34 = load ptr, ptr %6, align 8, !tbaa !11
  %35 = getelementptr inbounds nuw i8, ptr %34, i32 1
  store ptr %35, ptr %6, align 8, !tbaa !11
  br label %11, !llvm.loop !49

36:                                               ; preds = %11
  store i32 0, ptr %3, align 4
  store i32 1, ptr %7, align 4
  br label %37

37:                                               ; preds = %36, %27
  call void @llvm.lifetime.end.p0(i64 8, ptr %6) #10
  %38 = load i32, ptr %3, align 4
  ret i32 %38
}

; Function Attrs: nounwind uwtable
define dso_local void @list_objects_filter_init(ptr noundef %0) #0 {
  %2 = alloca ptr, align 8
  %3 = alloca %struct.list_objects_filter_options, align 8
  store ptr %0, ptr %2, align 8, !tbaa !8
  call void @llvm.lifetime.start.p0(i64 88, ptr %3) #10
  call void @llvm.memcpy.p0.p0.i64(ptr align 8 %3, ptr align 8 @__const.list_objects_filter_init.blank, i64 88, i1 false)
  %4 = load ptr, ptr %2, align 8, !tbaa !8
  call void @llvm.memcpy.p0.p0.i64(ptr align 8 %4, ptr align 8 %3, i64 88, i1 false)
  call void @llvm.lifetime.end.p0(i64 88, ptr %3) #10
  ret void
}

; Function Attrs: inlinehint nounwind uwtable
define internal i64 @st_mult(i64 noundef %0, i64 noundef %1) #4 {
  %3 = alloca i64, align 8
  %4 = alloca i64, align 8
  store i64 %0, ptr %3, align 8, !tbaa !28
  store i64 %1, ptr %4, align 8, !tbaa !28
  %5 = load i64, ptr %3, align 8, !tbaa !28
  %6 = icmp ne i64 %5, 0
  br i1 %6, label %7, label %15

7:                                                ; preds = %2
  %8 = load i64, ptr %4, align 8, !tbaa !28
  %9 = load i64, ptr %3, align 8, !tbaa !28
  %10 = udiv i64 -1, %9
  %11 = icmp ugt i64 %8, %10
  br i1 %11, label %12, label %15

12:                                               ; preds = %7
  %13 = load i64, ptr %3, align 8, !tbaa !28
  %14 = load i64, ptr %4, align 8, !tbaa !28
  call void (ptr, ...) @die(ptr noundef @.str.33, i64 noundef %13, i64 noundef %14) #9
  unreachable

15:                                               ; preds = %7, %2
  %16 = load i64, ptr %3, align 8, !tbaa !28
  %17 = load i64, ptr %4, align 8, !tbaa !28
  %18 = mul i64 %16, %17
  ret i64 %18
}

; Function Attrs: nounwind uwtable
define internal i32 @parse_combine_subfilter(ptr noundef %0, ptr noundef %1, ptr noundef %2) #0 {
  %4 = alloca ptr, align 8
  %5 = alloca ptr, align 8
  %6 = alloca ptr, align 8
  %7 = alloca i64, align 8
  %8 = alloca ptr, align 8
  %9 = alloca i32, align 4
  %10 = alloca i64, align 8
  store ptr %0, ptr %4, align 8, !tbaa !8
  store ptr %1, ptr %5, align 8, !tbaa !13
  store ptr %2, ptr %6, align 8, !tbaa !13
  call void @llvm.lifetime.start.p0(i64 8, ptr %7) #10
  %11 = load ptr, ptr %4, align 8, !tbaa !8
  %12 = getelementptr inbounds nuw %struct.list_objects_filter_options, ptr %11, i32 0, i32 7
  %13 = load i64, ptr %12, align 8, !tbaa !33
  store i64 %13, ptr %7, align 8, !tbaa !28
  call void @llvm.lifetime.start.p0(i64 8, ptr %8) #10
  call void @llvm.lifetime.start.p0(i64 4, ptr %9) #10
  br label %14

14:                                               ; preds = %3
  call void @llvm.lifetime.start.p0(i64 8, ptr %10) #10
  %15 = load ptr, ptr %4, align 8, !tbaa !8
  %16 = getelementptr inbounds nuw %struct.list_objects_filter_options, ptr %15, i32 0, i32 7
  %17 = load i64, ptr %16, align 8, !tbaa !33
  %18 = add i64 %17, 1
  store i64 %18, ptr %10, align 8, !tbaa !28
  %19 = load i64, ptr %10, align 8, !tbaa !28
  %20 = load ptr, ptr %4, align 8, !tbaa !8
  %21 = getelementptr inbounds nuw %struct.list_objects_filter_options, ptr %20, i32 0, i32 7
  %22 = load i64, ptr %21, align 8, !tbaa !33
  %23 = icmp ult i64 %19, %22
  br i1 %23, label %24, label %25

24:                                               ; preds = %14
  call void (ptr, i32, ptr, ...) @BUG_fl(ptr noundef @.str.6, i32 noundef 144, ptr noundef @.str.22) #9
  unreachable

25:                                               ; preds = %14
  br label %26

26:                                               ; preds = %25
  %27 = load i64, ptr %10, align 8, !tbaa !28
  %28 = load ptr, ptr %4, align 8, !tbaa !8
  %29 = getelementptr inbounds nuw %struct.list_objects_filter_options, ptr %28, i32 0, i32 8
  %30 = load i64, ptr %29, align 8, !tbaa !34
  %31 = icmp ugt i64 %27, %30
  br i1 %31, label %32, label %65

32:                                               ; preds = %26
  %33 = load ptr, ptr %4, align 8, !tbaa !8
  %34 = getelementptr inbounds nuw %struct.list_objects_filter_options, ptr %33, i32 0, i32 8
  %35 = load i64, ptr %34, align 8, !tbaa !34
  %36 = add i64 %35, 16
  %37 = mul i64 %36, 3
  %38 = udiv i64 %37, 2
  %39 = load i64, ptr %10, align 8, !tbaa !28
  %40 = icmp ult i64 %38, %39
  br i1 %40, label %41, label %45

41:                                               ; preds = %32
  %42 = load i64, ptr %10, align 8, !tbaa !28
  %43 = load ptr, ptr %4, align 8, !tbaa !8
  %44 = getelementptr inbounds nuw %struct.list_objects_filter_options, ptr %43, i32 0, i32 8
  store i64 %42, ptr %44, align 8, !tbaa !34
  br label %54

45:                                               ; preds = %32
  %46 = load ptr, ptr %4, align 8, !tbaa !8
  %47 = getelementptr inbounds nuw %struct.list_objects_filter_options, ptr %46, i32 0, i32 8
  %48 = load i64, ptr %47, align 8, !tbaa !34
  %49 = add i64 %48, 16
  %50 = mul i64 %49, 3
  %51 = udiv i64 %50, 2
  %52 = load ptr, ptr %4, align 8, !tbaa !8
  %53 = getelementptr inbounds nuw %struct.list_objects_filter_options, ptr %52, i32 0, i32 8
  store i64 %51, ptr %53, align 8, !tbaa !34
  br label %54

54:                                               ; preds = %45, %41
  %55 = load ptr, ptr %4, align 8, !tbaa !8
  %56 = getelementptr inbounds nuw %struct.list_objects_filter_options, ptr %55, i32 0, i32 9
  %57 = load ptr, ptr %56, align 8, !tbaa !35
  %58 = load ptr, ptr %4, align 8, !tbaa !8
  %59 = getelementptr inbounds nuw %struct.list_objects_filter_options, ptr %58, i32 0, i32 8
  %60 = load i64, ptr %59, align 8, !tbaa !34
  %61 = call i64 @st_mult(i64 noundef 88, i64 noundef %60)
  %62 = call ptr @xrealloc(ptr noundef %57, i64 noundef %61)
  %63 = load ptr, ptr %4, align 8, !tbaa !8
  %64 = getelementptr inbounds nuw %struct.list_objects_filter_options, ptr %63, i32 0, i32 9
  store ptr %62, ptr %64, align 8, !tbaa !35
  br label %65

65:                                               ; preds = %54, %26
  br label %66

66:                                               ; preds = %65
  br label %67

67:                                               ; preds = %66
  %68 = load ptr, ptr %4, align 8, !tbaa !8
  %69 = getelementptr inbounds nuw %struct.list_objects_filter_options, ptr %68, i32 0, i32 9
  %70 = load ptr, ptr %69, align 8, !tbaa !35
  %71 = load ptr, ptr %4, align 8, !tbaa !8
  %72 = getelementptr inbounds nuw %struct.list_objects_filter_options, ptr %71, i32 0, i32 7
  %73 = load i64, ptr %72, align 8, !tbaa !33
  %74 = getelementptr inbounds nuw %struct.list_objects_filter_options, ptr %70, i64 %73
  call void @llvm.memset.p0.i64(ptr align 8 %74, i8 0, i64 88, i1 false)
  %75 = load i64, ptr %10, align 8, !tbaa !28
  %76 = load ptr, ptr %4, align 8, !tbaa !8
  %77 = getelementptr inbounds nuw %struct.list_objects_filter_options, ptr %76, i32 0, i32 7
  store i64 %75, ptr %77, align 8, !tbaa !33
  call void @llvm.lifetime.end.p0(i64 8, ptr %10) #10
  br label %78

78:                                               ; preds = %67
  br label %79

79:                                               ; preds = %78
  %80 = load ptr, ptr %4, align 8, !tbaa !8
  %81 = getelementptr inbounds nuw %struct.list_objects_filter_options, ptr %80, i32 0, i32 9
  %82 = load ptr, ptr %81, align 8, !tbaa !35
  %83 = load i64, ptr %7, align 8, !tbaa !28
  %84 = getelementptr inbounds nuw %struct.list_objects_filter_options, ptr %82, i64 %83
  call void @list_objects_filter_init(ptr noundef %84)
  %85 = load ptr, ptr %5, align 8, !tbaa !13
  %86 = getelementptr inbounds nuw %struct.strbuf, ptr %85, i32 0, i32 2
  %87 = load ptr, ptr %86, align 8, !tbaa !32
  %88 = call ptr @url_percent_decode(ptr noundef %87)
  store ptr %88, ptr %8, align 8, !tbaa !11
  %89 = load ptr, ptr %5, align 8, !tbaa !13
  %90 = load ptr, ptr %6, align 8, !tbaa !13
  %91 = call i32 @has_reserved_character(ptr noundef %89, ptr noundef %90)
  %92 = icmp ne i32 %91, 0
  br i1 %92, label %103, label %93

93:                                               ; preds = %79
  %94 = load ptr, ptr %4, align 8, !tbaa !8
  %95 = getelementptr inbounds nuw %struct.list_objects_filter_options, ptr %94, i32 0, i32 9
  %96 = load ptr, ptr %95, align 8, !tbaa !35
  %97 = load i64, ptr %7, align 8, !tbaa !28
  %98 = getelementptr inbounds nuw %struct.list_objects_filter_options, ptr %96, i64 %97
  %99 = load ptr, ptr %8, align 8, !tbaa !11
  %100 = load ptr, ptr %6, align 8, !tbaa !13
  %101 = call i32 @gently_parse_list_objects_filter(ptr noundef %98, ptr noundef %99, ptr noundef %100)
  %102 = icmp ne i32 %101, 0
  br label %103

103:                                              ; preds = %93, %79
  %104 = phi i1 [ true, %79 ], [ %102, %93 ]
  %105 = zext i1 %104 to i32
  store i32 %105, ptr %9, align 4, !tbaa !4
  %106 = load ptr, ptr %8, align 8, !tbaa !11
  call void @free(ptr noundef %106) #10
  %107 = load i32, ptr %9, align 4, !tbaa !4
  call void @llvm.lifetime.end.p0(i64 4, ptr %9) #10
  call void @llvm.lifetime.end.p0(i64 8, ptr %8) #10
  call void @llvm.lifetime.end.p0(i64 8, ptr %7) #10
  ret i32 %107
}

; Function Attrs: inlinehint nounwind uwtable
define internal void @strbuf_addstr(ptr noundef %0, ptr noundef %1) #4 {
  %3 = alloca ptr, align 8
  %4 = alloca ptr, align 8
  store ptr %0, ptr %3, align 8, !tbaa !13
  store ptr %1, ptr %4, align 8, !tbaa !11
  %5 = load ptr, ptr %3, align 8, !tbaa !13
  %6 = load ptr, ptr %4, align 8, !tbaa !11
  %7 = load ptr, ptr %4, align 8, !tbaa !11
  %8 = call i64 @strlen(ptr noundef %7) #11
  call void @strbuf_add(ptr noundef %5, ptr noundef %6, i64 noundef %8)
  ret void
}

; Function Attrs: inlinehint nounwind uwtable
define internal ptr @_(ptr noundef %0) #4 {
  %2 = alloca ptr, align 8
  %3 = alloca ptr, align 8
  store ptr %0, ptr %3, align 8, !tbaa !11
  %4 = load ptr, ptr %3, align 8, !tbaa !11
  %5 = load i8, ptr %4, align 1, !tbaa !23
  %6 = icmp ne i8 %5, 0
  br i1 %6, label %8, label %7

7:                                                ; preds = %1
  store ptr @.str.29, ptr %2, align 8
  br label %16

8:                                                ; preds = %1
  %9 = load i32, ptr @git_gettext_enabled, align 4, !tbaa !4
  %10 = icmp ne i32 %9, 0
  br i1 %10, label %13, label %11

11:                                               ; preds = %8
  %12 = load ptr, ptr %3, align 8, !tbaa !11
  store ptr %12, ptr %2, align 8
  br label %16

13:                                               ; preds = %8
  %14 = load ptr, ptr %3, align 8, !tbaa !11
  %15 = call ptr @dcgettext(ptr noundef null, ptr noundef %14, i32 noundef 5) #10
  store ptr %15, ptr %2, align 8
  br label %16

16:                                               ; preds = %13, %11, %7
  %17 = load ptr, ptr %2, align 8
  ret ptr %17
}

; Function Attrs: inlinehint nounwind uwtable
define internal ptr @strbuf_split_str(ptr noundef %0, i32 noundef %1, i32 noundef %2) #4 {
  %4 = alloca ptr, align 8
  %5 = alloca i32, align 4
  %6 = alloca i32, align 4
  store ptr %0, ptr %4, align 8, !tbaa !11
  store i32 %1, ptr %5, align 4, !tbaa !4
  store i32 %2, ptr %6, align 4, !tbaa !4
  %7 = load ptr, ptr %4, align 8, !tbaa !11
  %8 = load ptr, ptr %4, align 8, !tbaa !11
  %9 = call i64 @strlen(ptr noundef %8) #11
  %10 = load i32, ptr %5, align 4, !tbaa !4
  %11 = load i32, ptr %6, align 4, !tbaa !4
  %12 = call ptr @strbuf_split_buf(ptr noundef %7, i64 noundef %9, i32 noundef %10, i32 noundef %11)
  ret ptr %12
}

; Function Attrs: nounwind uwtable
define internal i32 @parse_combine_filter(ptr noundef %0, ptr noundef %1, ptr noundef %2) #0 {
  %4 = alloca ptr, align 8
  %5 = alloca ptr, align 8
  %6 = alloca ptr, align 8
  %7 = alloca ptr, align 8
  %8 = alloca i64, align 8
  %9 = alloca i32, align 4
  %10 = alloca i64, align 8
  store ptr %0, ptr %4, align 8, !tbaa !8
  store ptr %1, ptr %5, align 8, !tbaa !11
  store ptr %2, ptr %6, align 8, !tbaa !13
  call void @llvm.lifetime.start.p0(i64 8, ptr %7) #10
  %11 = load ptr, ptr %5, align 8, !tbaa !11
  %12 = call ptr @strbuf_split_str(ptr noundef %11, i32 noundef 43, i32 noundef 0)
  store ptr %12, ptr %7, align 8, !tbaa !26
  call void @llvm.lifetime.start.p0(i64 8, ptr %8) #10
  call void @llvm.lifetime.start.p0(i64 4, ptr %9) #10
  store i32 0, ptr %9, align 4, !tbaa !4
  %13 = load ptr, ptr %7, align 8, !tbaa !26
  %14 = getelementptr inbounds ptr, ptr %13, i64 0
  %15 = load ptr, ptr %14, align 8, !tbaa !13
  %16 = icmp ne ptr %15, null
  br i1 %16, label %20, label %17

17:                                               ; preds = %3
  %18 = load ptr, ptr %6, align 8, !tbaa !13
  %19 = call ptr @_(ptr noundef @.str.30)
  call void @strbuf_addstr(ptr noundef %18, ptr noundef %19)
  store i32 1, ptr %9, align 4, !tbaa !4
  br label %67

20:                                               ; preds = %3
  store i64 0, ptr %8, align 8, !tbaa !28
  br label %21

21:                                               ; preds = %61, %20
  %22 = load ptr, ptr %7, align 8, !tbaa !26
  %23 = load i64, ptr %8, align 8, !tbaa !28
  %24 = getelementptr inbounds nuw ptr, ptr %22, i64 %23
  %25 = load ptr, ptr %24, align 8, !tbaa !13
  %26 = icmp ne ptr %25, null
  br i1 %26, label %27, label %31

27:                                               ; preds = %21
  %28 = load i32, ptr %9, align 4, !tbaa !4
  %29 = icmp ne i32 %28, 0
  %30 = xor i1 %29, true
  br label %31

31:                                               ; preds = %27, %21
  %32 = phi i1 [ false, %21 ], [ %30, %27 ]
  br i1 %32, label %33, label %64

33:                                               ; preds = %31
  %34 = load ptr, ptr %7, align 8, !tbaa !26
  %35 = load i64, ptr %8, align 8, !tbaa !28
  %36 = add i64 %35, 1
  %37 = getelementptr inbounds nuw ptr, ptr %34, i64 %36
  %38 = load ptr, ptr %37, align 8, !tbaa !13
  %39 = icmp ne ptr %38, null
  br i1 %39, label %40, label %53

40:                                               ; preds = %33
  call void @llvm.lifetime.start.p0(i64 8, ptr %10) #10
  %41 = load ptr, ptr %7, align 8, !tbaa !26
  %42 = load i64, ptr %8, align 8, !tbaa !28
  %43 = getelementptr inbounds nuw ptr, ptr %41, i64 %42
  %44 = load ptr, ptr %43, align 8, !tbaa !13
  %45 = getelementptr inbounds nuw %struct.strbuf, ptr %44, i32 0, i32 1
  %46 = load i64, ptr %45, align 8, !tbaa !29
  %47 = sub i64 %46, 1
  store i64 %47, ptr %10, align 8, !tbaa !28
  %48 = load ptr, ptr %7, align 8, !tbaa !26
  %49 = load i64, ptr %8, align 8, !tbaa !28
  %50 = getelementptr inbounds nuw ptr, ptr %48, i64 %49
  %51 = load ptr, ptr %50, align 8, !tbaa !13
  %52 = load i64, ptr %10, align 8, !tbaa !28
  call void @strbuf_remove(ptr noundef %51, i64 noundef %52, i64 noundef 1)
  call void @llvm.lifetime.end.p0(i64 8, ptr %10) #10
  br label %53

53:                                               ; preds = %40, %33
  %54 = load ptr, ptr %4, align 8, !tbaa !8
  %55 = load ptr, ptr %7, align 8, !tbaa !26
  %56 = load i64, ptr %8, align 8, !tbaa !28
  %57 = getelementptr inbounds nuw ptr, ptr %55, i64 %56
  %58 = load ptr, ptr %57, align 8, !tbaa !13
  %59 = load ptr, ptr %6, align 8, !tbaa !13
  %60 = call i32 @parse_combine_subfilter(ptr noundef %54, ptr noundef %58, ptr noundef %59)
  store i32 %60, ptr %9, align 4, !tbaa !4
  br label %61

61:                                               ; preds = %53
  %62 = load i64, ptr %8, align 8, !tbaa !28
  %63 = add i64 %62, 1
  store i64 %63, ptr %8, align 8, !tbaa !28
  br label %21, !llvm.loop !30

64:                                               ; preds = %31
  %65 = load ptr, ptr %4, align 8, !tbaa !8
  %66 = getelementptr inbounds nuw %struct.list_objects_filter_options, ptr %65, i32 0, i32 1
  store i32 6, ptr %66, align 8, !tbaa !15
  br label %67

67:                                               ; preds = %64, %17
  %68 = load ptr, ptr %7, align 8, !tbaa !26
  call void @strbuf_list_free(ptr noundef %68)
  %69 = load i32, ptr %9, align 4, !tbaa !4
  %70 = icmp ne i32 %69, 0
  br i1 %70, label %71, label %73

71:                                               ; preds = %67
  %72 = load ptr, ptr %4, align 8, !tbaa !8
  call void @list_objects_filter_release(ptr noundef %72)
  br label %73

73:                                               ; preds = %71, %67
  %74 = load i32, ptr %9, align 4, !tbaa !4
  call void @llvm.lifetime.end.p0(i64 4, ptr %9) #10
  call void @llvm.lifetime.end.p0(i64 8, ptr %8) #10
  call void @llvm.lifetime.end.p0(i64 8, ptr %7) #10
  ret i32 %74
}