; Function Attrs: nounwind uwtable
define internal fastcc range(i32 0, 2) i32 @parse_combine_filter(ptr noundef %0, ptr noundef %1, ptr noundef %2) unnamed_addr #0 {
  %4 = tail call i64 @strlen(ptr noundef nonnull dereferenceable(1) %1) #15
  %5 = tail call ptr @strbuf_split_buf(ptr noundef nonnull %1, i64 noundef %4, i32 noundef 43, i32 noundef 0) #16
  %6 = load ptr, ptr %5, align 8, !tbaa !20
  %.not = icmp eq ptr %6, null
  br i1 %.not, label %10, label %.lr.ph

.lr.ph:                                           ; preds = %3
  %7 = getelementptr inbounds nuw i8, ptr %0, i64 64
  %8 = getelementptr inbounds nuw i8, ptr %0, i64 72
  %9 = getelementptr inbounds nuw i8, ptr %0, i64 80
  br label %15

10:                                               ; preds = %3
  %11 = load i32, ptr @git_gettext_enabled, align 4, !tbaa !17
  %.not4.i = icmp eq i32 %11, 0
  br i1 %.not4.i, label %.thread, label %12

12:                                               ; preds = %10
  %13 = tail call ptr @dcgettext(ptr noundef null, ptr noundef nonnull @.str.30, i32 noundef 5) #16
  br label %.thread

.thread:                                          ; preds = %12, %10
  %.0.i = phi ptr [ %13, %12 ], [ @.str.30, %10 ]
  %14 = tail call i64 @strlen(ptr noundef nonnull dereferenceable(1) %.0.i) #15
  tail call void @strbuf_add(ptr noundef %2, ptr noundef nonnull %.0.i, i64 noundef %14) #16
  tail call void @strbuf_list_free(ptr noundef nonnull %5) #16
  br label %74

15:                                               ; preds = %.lr.ph, %parse_combine_subfilter.exit
  %16 = phi ptr [ %6, %.lr.ph ], [ %70, %parse_combine_subfilter.exit ]
  %.038 = phi i64 [ 0, %.lr.ph ], [ %17, %parse_combine_subfilter.exit ]
  %17 = add i64 %.038, 1
  %18 = getelementptr inbounds nuw ptr, ptr %5, i64 %17
  %19 = load ptr, ptr %18, align 8, !tbaa !20
  %.not26 = icmp eq ptr %19, null
  br i1 %.not26, label %25, label %20

20:                                               ; preds = %15
  %21 = getelementptr inbounds nuw ptr, ptr %5, i64 %.038
  %22 = getelementptr inbounds nuw i8, ptr %16, i64 8
  %23 = load i64, ptr %22, align 8, !tbaa !22
  %24 = add i64 %23, -1
  tail call void @strbuf_remove(ptr noundef nonnull %16, i64 noundef %24, i64 noundef 1) #16
  %.pre = load ptr, ptr %21, align 8, !tbaa !20
  br label %25

25:                                               ; preds = %20, %15
  %26 = phi ptr [ %.pre, %20 ], [ %16, %15 ]
  %27 = load i64, ptr %7, align 8, !tbaa !23
  %28 = add i64 %27, 1
  %29 = icmp eq i64 %27, -1
  br i1 %29, label %30, label %31

30:                                               ; preds = %25
  tail call void (ptr, i32, ptr, ...) @BUG_fl(ptr noundef nonnull @.str.6, i32 noundef 144, ptr noundef nonnull @.str.22) #14
  unreachable

31:                                               ; preds = %25
  %32 = load i64, ptr %8, align 8, !tbaa !24
  %33 = icmp ugt i64 %28, %32
  br i1 %33, label %34, label %._crit_edge43

._crit_edge43:                                    ; preds = %31
  %.pre44 = load ptr, ptr %9, align 8, !tbaa !25
  br label %43

34:                                               ; preds = %31
  %35 = mul i64 %32, 3
  %36 = add i64 %35, 48
  %37 = lshr i64 %36, 1
  %..i = tail call i64 @llvm.umax.i64(i64 %37, i64 %28)
  store i64 %..i, ptr %8, align 8, !tbaa !24
  %38 = icmp ugt i64 %..i, 209622091746699450
  br i1 %38, label %39, label %st_mult.exit

39:                                               ; preds = %34
  tail call void (ptr, ...) @die(ptr noundef nonnull @.str.33, i64 noundef 88, i64 noundef %..i) #14
  unreachable

st_mult.exit:                                     ; preds = %34
  %40 = load ptr, ptr %9, align 8, !tbaa !25
  %41 = mul nuw i64 %..i, 88
  %42 = tail call ptr @xrealloc(ptr noundef %40, i64 noundef %41) #16
  store ptr %42, ptr %9, align 8, !tbaa !25
  %.pre45 = load i64, ptr %7, align 8, !tbaa !23
  br label %43

43:                                               ; preds = %._crit_edge43, %st_mult.exit
  %44 = phi i64 [ %27, %._crit_edge43 ], [ %.pre45, %st_mult.exit ]
  %45 = phi ptr [ %.pre44, %._crit_edge43 ], [ %42, %st_mult.exit ]
  %46 = getelementptr inbounds nuw %struct.list_objects_filter_options, ptr %45, i64 %44
  tail call void @llvm.memset.p0.i64(ptr noundef nonnull align 8 dereferenceable(88) %46, i8 0, i64 88, i1 false)
  store i64 %28, ptr %7, align 8, !tbaa !23
  %47 = load ptr, ptr %9, align 8, !tbaa !25
  %48 = getelementptr inbounds nuw %struct.list_objects_filter_options, ptr %47, i64 %27
  tail call void @llvm.memcpy.p0.p0.i64(ptr noundef nonnull align 8 dereferenceable(88) %48, ptr noundef nonnull align 8 dereferenceable(88) @__const.list_objects_filter_init.blank, i64 88, i1 false)
  %49 = getelementptr inbounds nuw i8, ptr %26, i64 16
  %50 = load ptr, ptr %49, align 8, !tbaa !26
  %51 = tail call ptr @url_percent_decode(ptr noundef %50) #16
  %.val.i = load ptr, ptr %49, align 8, !tbaa !26
  %52 = load i8, ptr %.val.i, align 1, !tbaa !14
  %.not2.i = icmp eq i8 %52, 0
  br i1 %.not2.i, label %.loopexit, label %.lr.ph.i

.lr.ph.i:                                         ; preds = %43, %61
  %53 = phi i8 [ %63, %61 ], [ %52, %43 ]
  %.03.i = phi ptr [ %62, %61 ], [ %.val.i, %43 ]
  %54 = icmp slt i8 %53, 33
  br i1 %54, label %57, label %55

55:                                               ; preds = %.lr.ph.i
  %56 = zext nneg i8 %53 to i32
  %memchr.i = tail call ptr @memchr(ptr noundef nonnull dereferenceable(1) @.str.32, i32 %56, i64 24)
  %.not10.i = icmp eq ptr %memchr.i, null
  br i1 %.not10.i, label %61, label %57

57:                                               ; preds = %55, %.lr.ph.i
  %58 = load i32, ptr @git_gettext_enabled, align 4, !tbaa !17
  %.not4.i.i = icmp eq i32 %58, 0
  br i1 %.not4.i.i, label %has_reserved_character.exit, label %59

59:                                               ; preds = %57
  %60 = tail call ptr @dcgettext(ptr noundef null, ptr noundef nonnull @.str.31, i32 noundef 5) #16
  %.pre.i = load i8, ptr %.03.i, align 1, !tbaa !14
  br label %has_reserved_character.exit

61:                                               ; preds = %55
  %62 = getelementptr inbounds nuw i8, ptr %.03.i, i64 1
  %63 = load i8, ptr %62, align 1, !tbaa !14
  %.not.i27 = icmp eq i8 %63, 0
  br i1 %.not.i27, label %.loopexit, label %.lr.ph.i, !llvm.loop !27

has_reserved_character.exit:                      ; preds = %57, %59
  %64 = phi i8 [ %.pre.i, %59 ], [ %53, %57 ]
  %.0.i.i = phi ptr [ %60, %59 ], [ @.str.31, %57 ]
  %65 = sext i8 %64 to i32
  tail call void (ptr, ptr, ...) @strbuf_addf(ptr noundef %2, ptr noundef %.0.i.i, i32 noundef %65) #16
  br label %parse_combine_subfilter.exit

.loopexit:                                        ; preds = %61, %43
  %66 = load ptr, ptr %9, align 8, !tbaa !25
  %67 = getelementptr inbounds nuw %struct.list_objects_filter_options, ptr %66, i64 %27
  %68 = tail call i32 @gently_parse_list_objects_filter(ptr noundef %67, ptr noundef %51, ptr noundef %2)
  %69 = icmp eq i32 %68, 0
  br label %parse_combine_subfilter.exit

parse_combine_subfilter.exit:                     ; preds = %has_reserved_character.exit, %.loopexit
  %.not25 = phi i1 [ false, %has_reserved_character.exit ], [ %69, %.loopexit ]
  tail call void @free(ptr noundef %51) #16
  %70 = load ptr, ptr %18, align 8, !tbaa !20
  %71 = icmp ne ptr %70, null
  %72 = select i1 %71, i1 %.not25, i1 false
  br i1 %72, label %15, label %._crit_edge, !llvm.loop !28

._crit_edge:                                      ; preds = %parse_combine_subfilter.exit
  %73 = getelementptr inbounds nuw i8, ptr %0, i64 24
  store i32 6, ptr %73, align 8, !tbaa !4
  tail call void @strbuf_list_free(ptr noundef nonnull %5) #16
  br i1 %.not25, label %75, label %74

74:                                               ; preds = %.thread, %._crit_edge
  tail call void @list_objects_filter_release(ptr noundef %0)
  br label %75

75:                                               ; preds = %74, %._crit_edge
  %.02233 = phi i32 [ 1, %74 ], [ 0, %._crit_edge ]
  ret i32 %.02233
}